target datalayout = "e-m:e-p270:32:32-p271:32:32-p272:64:64-i64:64-i128:128-f80:128-n8:16:32:64-S128"
target triple = "x86_64-pc-linux-gnu"

; Function Attrs: inlinehint nounwind uwtable
define internal signext i8 @nat_toupper(i8 noundef signext %0) #2 {
  %2 = alloca i8, align 1
  %3 = alloca i32, align 4
  %4 = alloca i32, align 4
  store i8 %0, ptr %2, align 1
  call void @llvm.lifetime.start.p0(i64 4, ptr %3) #4
  %5 = call ptr @__ctype_toupper_loc() #5
  %6 = load ptr, ptr %5, align 8
  %7 = load i8, ptr %2, align 1
  %8 = zext i8 %7 to i32
  %9 = sext i32 %8 to i64
  %10 = getelementptr inbounds i32, ptr %6, i64 %9
  %11 = load i32, ptr %10, align 4
  store i32 %11, ptr %3, align 4
  %12 = load i32, ptr %3, align 4
  store i32 %12, ptr %4, align 4
  call void @llvm.lifetime.end.p0(i64 4, ptr %3) #4
  %13 = load i32, ptr %4, align 4
  %14 = trunc i32 %13 to i8
  ret i8 %14
}

; Function Attrs: nounwind uwtable
define internal i32 @compare_right(ptr noundef %0, ptr noundef %1) #0 {
  %3 = alloca i32, align 4
  %4 = alloca ptr, align 8
  %5 = alloca ptr, align 8
  %6 = alloca i32, align 4
  %7 = alloca i32, align 4
  store ptr %0, ptr %4, align 8
  store ptr %1, ptr %5, align 8
  call void @llvm.lifetime.start.p0(i64 4, ptr %6) #4
  store i32 0, ptr %6, align 4
  br label %8

8:                                                ; preds = %74, %2
  %9 = load ptr, ptr %4, align 8
  %10 = load i8, ptr %9, align 1
  %11 = call i32 @nat_isdigit(i8 noundef signext %10)
  %12 = icmp ne i32 %11, 0
  br i1 %12, label %20, label %13

13:                                               ; preds = %8
  %14 = load ptr, ptr %5, align 8
  %15 = load i8, ptr %14, align 1
  %16 = call i32 @nat_isdigit(i8 noundef signext %15)
  %17 = icmp ne i32 %16, 0
  br i1 %17, label %20, label %18

18:                                               ; preds = %13
  %19 = load i32, ptr %6, align 4
  store i32 %19, ptr %3, align 4
  store i32 1, ptr %7, align 4
  br label %79

20:                                               ; preds = %13, %8
  %21 = load ptr, ptr %4, align 8
  %22 = load i8, ptr %21, align 1
  %23 = call i32 @nat_isdigit(i8 noundef signext %22)
  %24 = icmp ne i32 %23, 0
  br i1 %24, label %26, label %25

25:                                               ; preds = %20
  store i32 -1, ptr %3, align 4
  store i32 1, ptr %7, align 4
  br label %79

26:                                               ; preds = %20
  %27 = load ptr, ptr %5, align 8
  %28 = load i8, ptr %27, align 1
  %29 = call i32 @nat_isdigit(i8 noundef signext %28)
  %30 = icmp ne i32 %29, 0
  br i1 %30, label %32, label %31

31:                                               ; preds = %26
  store i32 1, ptr %3, align 4
  store i32 1, ptr %7, align 4
  br label %79

32:                                               ; preds = %26
  %33 = load ptr, ptr %4, align 8
  %34 = load i8, ptr %33, align 1
  %35 = sext i8 %34 to i32
  %36 = load ptr, ptr %5, align 8
  %37 = load i8, ptr %36, align 1
  %38 = sext i8 %37 to i32
  %39 = icmp slt i32 %35, %38
  br i1 %39, label %40, label %45

40:                                               ; preds = %32
  %41 = load i32, ptr %6, align 4
  %42 = icmp ne i32 %41, 0
  br i1 %42, label %44, label %43

43:                                               ; preds = %40
  store i32 -1, ptr %6, align 4
  br label %44

44:                                               ; preds = %43, %40
  br label %70

45:                                               ; preds = %32
  %46 = load ptr, ptr %4, align 8
  %47 = load i8, ptr %46, align 1
  %48 = sext i8 %47 to i32
  %49 = load ptr, ptr %5, align 8
  %50 = load i8, ptr %49, align 1
  %51 = sext i8 %50 to i32
  %52 = icmp sgt i32 %48, %51
  br i1 %52, label %53, label %58

53:                                               ; preds = %45
  %54 = load i32, ptr %6, align 4
  %55 = icmp ne i32 %54, 0
  br i1 %55, label %57, label %56

56:                                               ; preds = %53
  store i32 1, ptr %6, align 4
  br label %57

57:                                               ; preds = %56, %53
  br label %69

58:                                               ; preds = %45
  %59 = load ptr, ptr %4, align 8
  %60 = load i8, ptr %59, align 1
  %61 = icmp ne i8 %60, 0
  br i1 %61, label %68, label %62

62:                                               ; preds = %58
  %63 = load ptr, ptr %5, align 8
  %64 = load i8, ptr %63, align 1
  %65 = icmp ne i8 %64, 0
  br i1 %65, label %68, label %66

66:                                               ; preds = %62
  %67 = load i32, ptr %6, align 4
  store i32 %67, ptr %3, align 4
  store i32 1, ptr %7, align 4
  br label %79

68:                                               ; preds = %62, %58
  br label %69

69:                                               ; preds = %68, %57
  br label %70

70:                                               ; preds = %69, %44
  br label %71

71:                                               ; preds = %70
  br label %72

72:                                               ; preds = %71
  br label %73

73:                                               ; preds = %72
  br label %74

74:                                               ; preds = %73
  %75 = load ptr, ptr %4, align 8
  %76 = getelementptr inbounds nuw i8, ptr %75, i32 1
  store ptr %76, ptr %4, align 8
  %77 = load ptr, ptr %5, align 8
  %78 = getelementptr inbounds nuw i8, ptr %77, i32 1
  store ptr %78, ptr %5, align 8
  br label %8, !llvm.loop !14

79:                                               ; preds = %66, %31, %25, %18
  call void @llvm.lifetime.end.p0(i64 4, ptr %6) #4
  %80 = load i32, ptr %3, align 4
  ret i32 %80
}

; Function Attrs: nounwind uwtable
define internal i32 @compare_left(ptr noundef %0, ptr noundef %1) #0 {
  %3 = alloca i32, align 4
  %4 = alloca ptr, align 8
  %5 = alloca ptr, align 8
  store ptr %0, ptr %4, align 8
  store ptr %1, ptr %5, align 8
  br label %6

6:                                                ; preds = %52, %2
  %7 = load ptr, ptr %4, align 8
  %8 = load i8, ptr %7, align 1
  %9 = call i32 @nat_isdigit(i8 noundef signext %8)
  %10 = icmp ne i32 %9, 0
  br i1 %10, label %17, label %11

11:                                               ; preds = %6
  %12 = load ptr, ptr %5, align 8
  %13 = load i8, ptr %12, align 1
  %14 = call i32 @nat_isdigit(i8 noundef signext %13)
  %15 = icmp ne i32 %14, 0
  br i1 %15, label %17, label %16

16:                                               ; preds = %11
  store i32 0, ptr %3, align 4
  br label %57

17:                                               ; preds = %11, %6
  %18 = load ptr, ptr %4, align 8
  %19 = load i8, ptr %18, align 1
  %20 = call i32 @nat_isdigit(i8 noundef signext %19)
  %21 = icmp ne i32 %20, 0
  br i1 %21, label %23, label %22

22:                                               ; preds = %17
  store i32 -1, ptr %3, align 4
  br label %57

23:                                               ; preds = %17
  %24 = load ptr, ptr %5, align 8
  %25 = load i8, ptr %24, align 1
  %26 = call i32 @nat_isdigit(i8 noundef signext %25)
  %27 = icmp ne i32 %26, 0
  br i1 %27, label %29, label %28

28:                                               ; preds = %23
  store i32 1, ptr %3, align 4
  br label %57

29:                                               ; preds = %23
  %30 = load ptr, ptr %4, align 8
  %31 = load i8, ptr %30, align 1
  %32 = sext i8 %31 to i32
  %33 = load ptr, ptr %5, align 8
  %34 = load i8, ptr %33, align 1
  %35 = sext i8 %34 to i32
  %36 = icmp slt i32 %32, %35
  br i1 %36, label %37, label %38

37:                                               ; preds = %29
  store i32 -1, ptr %3, align 4
  br label %57

38:                                               ; preds = %29
  %39 = load ptr, ptr %4, align 8
  %40 = load i8, ptr %39, align 1
  %41 = sext i8 %40 to i32
  %42 = load ptr, ptr %5, align 8
  %43 = load i8, ptr %42, align 1
  %44 = sext i8 %43 to i32
  %45 = icmp sgt i32 %41, %44
  br i1 %45, label %46, label %47

46:                                               ; preds = %38
  store i32 1, ptr %3, align 4
  br label %57

47:                                               ; preds = %38
  br label %48

48:                                               ; preds = %47
  br label %49

49:                                               ; preds = %48
  br label %50

50:                                               ; preds = %49
  br label %51

51:                                               ; preds = %50
  br label %52

52:                                               ; preds = %51
  %53 = load ptr, ptr %4, align 8
  %54 = getelementptr inbounds nuw i8, ptr %53, i32 1
  store ptr %54, ptr %4, align 8
  %55 = load ptr, ptr %5, align 8
  %56 = getelementptr inbounds nuw i8, ptr %55, i32 1
  store ptr %56, ptr %5, align 8
  br label %6, !llvm.loop !13

57:                                               ; preds = %46, %37, %28, %22, %16
  %58 = load i32, ptr %3, align 4
  ret i32 %58
}

; Function Attrs: inlinehint nounwind uwtable
define internal i32 @nat_isdigit(i8 noundef signext %0) #2 {
  %2 = alloca i8, align 1
  store i8 %0, ptr %2, align 1
  %3 = call ptr @__ctype_b_loc() #5
  %4 = load ptr, ptr %3, align 8
  %5 = load i8, ptr %2, align 1
  %6 = zext i8 %5 to i32
  %7 = sext i32 %6 to i64
  %8 = getelementptr inbounds i16, ptr %4, i64 %7
  %9 = load i16, ptr %8, align 2
  %10 = zext i16 %9 to i32
  %11 = and i32 %10, 2048
  ret i32 %11
}

; Function Attrs: inlinehint nounwind uwtable
define internal i32 @nat_isspace(i8 noundef signext %0) #2 {
  %2 = alloca i8, align 1
  store i8 %0, ptr %2, align 1
  %3 = call ptr @__ctype_b_loc() #5
  %4 = load ptr, ptr %3, align 8
  %5 = load i8, ptr %2, align 1
  %6 = zext i8 %5 to i32
  %7 = sext i32 %6 to i64
  %8 = getelementptr inbounds i16, ptr %4, i64 %7
  %9 = load i16, ptr %8, align 2
  %10 = zext i16 %9 to i32
  %11 = and i32 %10, 8192
  ret i32 %11
}

; Function Attrs: nounwind uwtable
define internal i32 @strnatcmp0(ptr noundef %0, ptr noundef %1, i32 noundef %2) #0 {
  %4 = alloca i32, align 4
  %5 = alloca ptr, align 8
  %6 = alloca ptr, align 8
  %7 = alloca i32, align 4
  %8 = alloca i32, align 4
  %9 = alloca i32, align 4
  %10 = alloca i8, align 1
  %11 = alloca i8, align 1
  %12 = alloca i32, align 4
  %13 = alloca i32, align 4
  %14 = alloca i32, align 4
  store ptr %0, ptr %5, align 8
  store ptr %1, ptr %6, align 8
  store i32 %2, ptr %7, align 4
  call void @llvm.lifetime.start.p0(i64 4, ptr %8) #4
  call void @llvm.lifetime.start.p0(i64 4, ptr %9) #4
  call void @llvm.lifetime.start.p0(i64 1, ptr %10) #4
  call void @llvm.lifetime.start.p0(i64 1, ptr %11) #4
  call void @llvm.lifetime.start.p0(i64 4, ptr %12) #4
  call void @llvm.lifetime.start.p0(i64 4, ptr %13) #4
  store i32 0, ptr %9, align 4
  store i32 0, ptr %8, align 4
  br label %15

15:                                               ; preds = %130, %3
  br label %16

16:                                               ; preds = %15
  %17 = load ptr, ptr %5, align 8
  %18 = load i32, ptr %8, align 4
  %19 = sext i32 %18 to i64
  %20 = getelementptr inbounds i8, ptr %17, i64 %19
  %21 = load i8, ptr %20, align 1
  store i8 %21, ptr %10, align 1
  %22 = load ptr, ptr %6, align 8
  %23 = load i32, ptr %9, align 4
  %24 = sext i32 %23 to i64
  %25 = getelementptr inbounds i8, ptr %22, i64 %24
  %26 = load i8, ptr %25, align 1
  store i8 %26, ptr %11, align 1
  br label %27

27:                                               ; preds = %31, %16
  %28 = load i8, ptr %10, align 1
  %29 = call i32 @nat_isspace(i8 noundef signext %28)
  %30 = icmp ne i32 %29, 0
  br i1 %30, label %31, label %38

31:                                               ; preds = %27
  %32 = load ptr, ptr %5, align 8
  %33 = load i32, ptr %8, align 4
  %34 = add nsw i32 %33, 1
  store i32 %34, ptr %8, align 4
  %35 = sext i32 %34 to i64
  %36 = getelementptr inbounds i8, ptr %32, i64 %35
  %37 = load i8, ptr %36, align 1
  store i8 %37, ptr %10, align 1
  br label %27, !llvm.loop !8

38:                                               ; preds = %27
  br label %39

39:                                               ; preds = %43, %38
  %40 = load i8, ptr %11, align 1
  %41 = call i32 @nat_isspace(i8 noundef signext %40)
  %42 = icmp ne i32 %41, 0
  br i1 %42, label %43, label %50

43:                                               ; preds = %39
  %44 = load ptr, ptr %6, align 8
  %45 = load i32, ptr %9, align 4
  %46 = add nsw i32 %45, 1
  store i32 %46, ptr %9, align 4
  %47 = sext i32 %46 to i64
  %48 = getelementptr inbounds i8, ptr %44, i64 %47
  %49 = load i8, ptr %48, align 1
  store i8 %49, ptr %11, align 1
  br label %39, !llvm.loop !11

50:                                               ; preds = %39
  %51 = load i8, ptr %10, align 1
  %52 = call i32 @nat_isdigit(i8 noundef signext %51)
  %53 = icmp ne i32 %52, 0
  br i1 %53, label %54, label %100

54:                                               ; preds = %50
  %55 = load i8, ptr %11, align 1
  %56 = call i32 @nat_isdigit(i8 noundef signext %55)
  %57 = icmp ne i32 %56, 0
  br i1 %57, label %58, label %100

58:                                               ; preds = %54
  %59 = load i8, ptr %10, align 1
  %60 = sext i8 %59 to i32
  %61 = icmp eq i32 %60, 48
  br i1 %61, label %66, label %62

62:                                               ; preds = %58
  %63 = load i8, ptr %11, align 1
  %64 = sext i8 %63 to i32
  %65 = icmp eq i32 %64, 48
  br label %66

66:                                               ; preds = %62, %58
  %67 = phi i1 [ true, %58 ], [ %65, %62 ]
  %68 = zext i1 %67 to i32
  store i32 %68, ptr %12, align 4
  %69 = load i32, ptr %12, align 4
  %70 = icmp ne i32 %69, 0
  br i1 %70, label %71, label %85

71:                                               ; preds = %66
  %72 = load ptr, ptr %5, align 8
  %73 = load i32, ptr %8, align 4
  %74 = sext i32 %73 to i64
  %75 = getelementptr inbounds i8, ptr %72, i64 %74
  %76 = load ptr, ptr %6, align 8
  %77 = load i32, ptr %9, align 4
  %78 = sext i32 %77 to i64
  %79 = getelementptr inbounds i8, ptr %76, i64 %78
  %80 = call i32 @compare_left(ptr noundef %75, ptr noundef %79)
  store i32 %80, ptr %13, align 4
  %81 = icmp ne i32 %80, 0
  br i1 %81, label %82, label %84

82:                                               ; preds = %71
  %83 = load i32, ptr %13, align 4
  store i32 %83, ptr %4, align 4
  store i32 1, ptr %14, align 4
  br label %135

84:                                               ; preds = %71
  br label %99

85:                                               ; preds = %66
  %86 = load ptr, ptr %5, align 8
  %87 = load i32, ptr %8, align 4
  %88 = sext i32 %87 to i64
  %89 = getelementptr inbounds i8, ptr %86, i64 %88
  %90 = load ptr, ptr %6, align 8
  %91 = load i32, ptr %9, align 4
  %92 = sext i32 %91 to i64
  %93 = getelementptr inbounds i8, ptr %90, i64 %92
  %94 = call i32 @compare_right(ptr noundef %89, ptr noundef %93)
  store i32 %94, ptr %13, align 4
  %95 = icmp ne i32 %94, 0
  br i1 %95, label %96, label %98

96:                                               ; preds = %85
  %97 = load i32, ptr %13, align 4
  store i32 %97, ptr %4, align 4
  store i32 1, ptr %14, align 4
  br label %135

98:                                               ; preds = %85
  br label %99

99:                                               ; preds = %98, %84
  br label %100

100:                                              ; preds = %99, %54, %50
  %101 = load i8, ptr %10, align 1
  %102 = icmp ne i8 %101, 0
  br i1 %102, label %107, label %103

103:                                              ; preds = %100
  %104 = load i8, ptr %11, align 1
  %105 = icmp ne i8 %104, 0
  br i1 %105, label %107, label %106

106:                                              ; preds = %103
  store i32 0, ptr %4, align 4
  store i32 1, ptr %14, align 4
  br label %135

107:                                              ; preds = %103, %100
  %108 = load i32, ptr %7, align 4
  %109 = icmp ne i32 %108, 0
  br i1 %109, label %110, label %115

110:                                              ; preds = %107
  %111 = load i8, ptr %10, align 1
  %112 = call signext i8 @nat_toupper(i8 noundef signext %111)
  store i8 %112, ptr %10, align 1
  %113 = load i8, ptr %11, align 1
  %114 = call signext i8 @nat_toupper(i8 noundef signext %113)
  store i8 %114, ptr %11, align 1
  br label %115

115:                                              ; preds = %110, %107
  %116 = load i8, ptr %10, align 1
  %117 = sext i8 %116 to i32
  %118 = load i8, ptr %11, align 1
  %119 = sext i8 %118 to i32
  %120 = icmp slt i32 %117, %119
  br i1 %120, label %121, label %122

121:                                              ; preds = %115
  store i32 -1, ptr %4, align 4
  store i32 1, ptr %14, align 4
  br label %135

122:                                              ; preds = %115
  %123 = load i8, ptr %10, align 1
  %124 = sext i8 %123 to i32
  %125 = load i8, ptr %11, align 1
  %126 = sext i8 %125 to i32
  %127 = icmp sgt i32 %124, %126
  br i1 %127, label %128, label %129

128:                                              ; preds = %122
  store i32 1, ptr %4, align 4
  store i32 1, ptr %14, align 4
  br label %135

129:                                              ; preds = %122
  br label %130

130:                                              ; preds = %129
  %131 = load i32, ptr %8, align 4
  %132 = add nsw i32 %131, 1
  store i32 %132, ptr %8, align 4
  %133 = load i32, ptr %9, align 4
  %134 = add nsw i32 %133, 1
  store i32 %134, ptr %9, align 4
  br label %15, !llvm.loop !12

135:                                              ; preds = %128, %121, %106, %96, %82
  call void @llvm.lifetime.end.p0(i64 4, ptr %13) #4
  call void @llvm.lifetime.end.p0(i64 4, ptr %12) #4
  call void @llvm.lifetime.end.p0(i64 1, ptr %11) #4
  call void @llvm.lifetime.end.p0(i64 1, ptr %10) #4
  call void @llvm.lifetime.end.p0(i64 4, ptr %9) #4
  call void @llvm.lifetime.end.p0(i64 4, ptr %8) #4
  %136 = load i32, ptr %4, align 4
  ret i32 %136
}